target datalayout = "e-m:e-p270:32:32-p271:32:32-p272:64:64-i64:64-i128:128-f80:128-n8:16:32:64-S128"
target triple = "x86_64-pc-linux-gnu"

%struct.pmix_class_t = type { ptr, ptr, ptr, ptr, i32, i32, ptr, ptr, i64 }
%struct.pmix_object_t = type { %union.pthread_mutex_t, ptr, i32, %struct.pmix_tma }
%union.pthread_mutex_t = type { %struct.__pthread_mutex_s }
%struct.__pthread_mutex_s = type { i32, i32, i32, i32, i32, i16, i16, %struct.__pthread_internal_list }
%struct.__pthread_internal_list = type { ptr, ptr }
%struct.pmix_tma = type { ptr, ptr, ptr, ptr, ptr, ptr, ptr, ptr }
%struct.pmix_mca_base_var_group_t = type { %struct.pmix_list_item_t, i32, i8, ptr, ptr, ptr, ptr, ptr, %struct.pmix_value_array_t, %struct.pmix_value_array_t }
%struct.pmix_list_item_t = type { %struct.pmix_object_t, ptr, ptr, i32 }
%struct.pmix_value_array_t = type { %struct.pmix_object_t, ptr, i64, i64, i64 }

; Function Attrs: inlinehint nounwind uwtable
define internal void @pmix_obj_run_destructors(ptr noundef %0) #3 {
  %2 = alloca ptr, align 8
  %3 = alloca ptr, align 8
  store ptr %0, ptr %2, align 8, !tbaa !32
  call void @llvm.lifetime.start.p0(i64 8, ptr %3) #14
  %4 = load ptr, ptr %2, align 8, !tbaa !32
  %5 = getelementptr inbounds nuw %struct.pmix_object_t, ptr %4, i32 0, i32 1
  %6 = load ptr, ptr %5, align 8, !tbaa !15
  %7 = getelementptr inbounds nuw %struct.pmix_class_t, ptr %6, i32 0, i32 7
  %8 = load ptr, ptr %7, align 8, !tbaa !56
  store ptr %8, ptr %3, align 8, !tbaa !45
  br label %9

9:                                                ; preds = %13, %1
  %10 = load ptr, ptr %3, align 8, !tbaa !45
  %11 = load ptr, ptr %10, align 8, !tbaa !45
  %12 = icmp ne ptr null, %11
  br i1 %12, label %13, label %19

13:                                               ; preds = %9
  %14 = load ptr, ptr %3, align 8, !tbaa !45
  %15 = load ptr, ptr %14, align 8, !tbaa !45
  %16 = load ptr, ptr %2, align 8, !tbaa !32
  call void %15(ptr noundef %16)
  %17 = load ptr, ptr %3, align 8, !tbaa !45
  %18 = getelementptr inbounds nuw ptr, ptr %17, i32 1
  store ptr %18, ptr %3, align 8, !tbaa !45
  br label %9, !llvm.loop !57

19:                                               ; preds = %9
  call void @llvm.lifetime.end.p0(i64 8, ptr %3) #14
  ret void
}

; Function Attrs: nounwind uwtable
define internal void @pmix_mca_base_var_group_destructor(ptr noundef %0) #0 {
  %2 = alloca ptr, align 8
  store ptr %0, ptr %2, align 8, !tbaa !3
  %3 = load ptr, ptr %2, align 8, !tbaa !3
  %4 = getelementptr inbounds nuw %struct.pmix_mca_base_var_group_t, ptr %3, i32 0, i32 3
  %5 = load ptr, ptr %4, align 8, !tbaa !19
  call void @free(ptr noundef %5) #14
  %6 = load ptr, ptr %2, align 8, !tbaa !3
  %7 = getelementptr inbounds nuw %struct.pmix_mca_base_var_group_t, ptr %6, i32 0, i32 3
  store ptr null, ptr %7, align 8, !tbaa !19
  %8 = load ptr, ptr %2, align 8, !tbaa !3
  %9 = getelementptr inbounds nuw %struct.pmix_mca_base_var_group_t, ptr %8, i32 0, i32 7
  %10 = load ptr, ptr %9, align 8, !tbaa !25
  call void @free(ptr noundef %10) #14
  %11 = load ptr, ptr %2, align 8, !tbaa !3
  %12 = getelementptr inbounds nuw %struct.pmix_mca_base_var_group_t, ptr %11, i32 0, i32 7
  store ptr null, ptr %12, align 8, !tbaa !25
  %13 = load ptr, ptr %2, align 8, !tbaa !3
  %14 = getelementptr inbounds nuw %struct.pmix_mca_base_var_group_t, ptr %13, i32 0, i32 4
  %15 = load ptr, ptr %14, align 8, !tbaa !26
  call void @free(ptr noundef %15) #14
  %16 = load ptr, ptr %2, align 8, !tbaa !3
  %17 = getelementptr inbounds nuw %struct.pmix_mca_base_var_group_t, ptr %16, i32 0, i32 4
  store ptr null, ptr %17, align 8, !tbaa !26
  %18 = load ptr, ptr %2, align 8, !tbaa !3
  %19 = getelementptr inbounds nuw %struct.pmix_mca_base_var_group_t, ptr %18, i32 0, i32 5
  %20 = load ptr, ptr %19, align 8, !tbaa !27
  call void @free(ptr noundef %20) #14
  %21 = load ptr, ptr %2, align 8, !tbaa !3
  %22 = getelementptr inbounds nuw %struct.pmix_mca_base_var_group_t, ptr %21, i32 0, i32 5
  store ptr null, ptr %22, align 8, !tbaa !27
  %23 = load ptr, ptr %2, align 8, !tbaa !3
  %24 = getelementptr inbounds nuw %struct.pmix_mca_base_var_group_t, ptr %23, i32 0, i32 6
  %25 = load ptr, ptr %24, align 8, !tbaa !28
  call void @free(ptr noundef %25) #14
  %26 = load ptr, ptr %2, align 8, !tbaa !3
  %27 = getelementptr inbounds nuw %struct.pmix_mca_base_var_group_t, ptr %26, i32 0, i32 6
  store ptr null, ptr %27, align 8, !tbaa !28
  br label %28

28:                                               ; preds = %1
  %29 = load ptr, ptr %2, align 8, !tbaa !3
  %30 = getelementptr inbounds nuw %struct.pmix_mca_base_var_group_t, ptr %29, i32 0, i32 8
  call void @pmix_obj_run_destructors(ptr noundef %30)
  br label %31

31:                                               ; preds = %28
  br label %32

32:                                               ; preds = %31
  %33 = load ptr, ptr %2, align 8, !tbaa !3
  %34 = getelementptr inbounds nuw %struct.pmix_mca_base_var_group_t, ptr %33, i32 0, i32 9
  call void @pmix_obj_run_destructors(ptr noundef %34)
  br label %35

35:                                               ; preds = %32
  ret void
}