; Function Attrs: nounwind uwtable
define internal void @pmix_mca_base_var_group_destructor(ptr noundef %0) #0 {
  %2 = getelementptr inbounds nuw i8, ptr %0, i64 152
  %3 = load ptr, ptr %2, align 8, !tbaa !26
  tail call void @free(ptr noundef %3) #17
  store ptr null, ptr %2, align 8, !tbaa !26
  %4 = getelementptr inbounds nuw i8, ptr %0, i64 184
  %5 = load ptr, ptr %4, align 8, !tbaa !31
  tail call void @free(ptr noundef %5) #17
  store ptr null, ptr %4, align 8, !tbaa !31
  %6 = getelementptr inbounds nuw i8, ptr %0, i64 160
  %7 = load ptr, ptr %6, align 8, !tbaa !32
  tail call void @free(ptr noundef %7) #17
  store ptr null, ptr %6, align 8, !tbaa !32
  %8 = getelementptr inbounds nuw i8, ptr %0, i64 168
  %9 = load ptr, ptr %8, align 8, !tbaa !33
  tail call void @free(ptr noundef %9) #17
  store ptr null, ptr %8, align 8, !tbaa !33
  %10 = getelementptr inbounds nuw i8, ptr %0, i64 176
  %11 = load ptr, ptr %10, align 8, !tbaa !34
  tail call void @free(ptr noundef %11) #17
  store ptr null, ptr %10, align 8, !tbaa !34
  %12 = getelementptr inbounds nuw i8, ptr %0, i64 192
  %13 = getelementptr inbounds nuw i8, ptr %0, i64 232
  %14 = load ptr, ptr %13, align 8, !tbaa !13
  %15 = getelementptr inbounds nuw i8, ptr %14, i64 48
  %16 = load ptr, ptr %15, align 8, !tbaa !35
  %17 = load ptr, ptr %16, align 8, !tbaa !18
  %.not6.i = icmp eq ptr %17, null
  br i1 %.not6.i, label %pmix_obj_run_destructors.exit, label %.lr.ph.i

.lr.ph.i:                                         ; preds = %1, %.lr.ph.i
  %18 = phi ptr [ %20, %.lr.ph.i ], [ %17, %1 ]
  %.07.i = phi ptr [ %19, %.lr.ph.i ], [ %16, %1 ]
  tail call void %18(ptr noundef nonnull %12) #17
  %19 = getelementptr inbounds nuw i8, ptr %.07.i, i64 8
  %20 = load ptr, ptr %19, align 8, !tbaa !18
  %.not.i = icmp eq ptr %20, null
  br i1 %.not.i, label %pmix_obj_run_destructors.exit, label %.lr.ph.i, !llvm.loop !36

pmix_obj_run_destructors.exit:                    ; preds = %.lr.ph.i, %1
  %21 = getelementptr inbounds nuw i8, ptr %0, i64 344
  %22 = getelementptr inbounds nuw i8, ptr %0, i64 384
  %23 = load ptr, ptr %22, align 8, !tbaa !13
  %24 = getelementptr inbounds nuw i8, ptr %23, i64 48
  %25 = load ptr, ptr %24, align 8, !tbaa !35
  %26 = load ptr, ptr %25, align 8, !tbaa !18
  %.not6.i12 = icmp eq ptr %26, null
  br i1 %.not6.i12, label %pmix_obj_run_destructors.exit16, label %.lr.ph.i13

.lr.ph.i13:                                       ; preds = %pmix_obj_run_destructors.exit, %.lr.ph.i13
  %27 = phi ptr [ %29, %.lr.ph.i13 ], [ %26, %pmix_obj_run_destructors.exit ]
  %.07.i14 = phi ptr [ %28, %.lr.ph.i13 ], [ %25, %pmix_obj_run_destructors.exit ]
  tail call void %27(ptr noundef nonnull %21) #17
  %28 = getelementptr inbounds nuw i8, ptr %.07.i14, i64 8
  %29 = load ptr, ptr %28, align 8, !tbaa !18
  %.not.i15 = icmp eq ptr %29, null
  br i1 %.not.i15, label %pmix_obj_run_destructors.exit16, label %.lr.ph.i13, !llvm.loop !36

pmix_obj_run_destructors.exit16:                  ; preds = %.lr.ph.i13, %pmix_obj_run_destructors.exit
  ret void
}